; ModuleID = '14/106.c'
source_filename = "14/106.c"
target datalayout = "e-m:e-p270:32:32-p271:32:32-p272:64:64-i64:64-f80:128-n8:16:32:64-S128"
target triple = "x86_64-pc-linux-gnu"

%struct.st = type { i32, i32, i32 }

@.str = private unnamed_addr constant [3 x i8] c"%d\00", align 1
@.str.1 = private unnamed_addr constant [9 x i8] c"%d %d %d\00", align 1
@st = common dso_local global [100000 x %struct.st] zeroinitializer, align 16
@.str.2 = private unnamed_addr constant [6 x i8] c"%d %d\00", align 1
@.str.3 = private unnamed_addr constant [2 x i8] c"\0A\00", align 1

; Function Attrs: noinline nounwind uwtable
define dso_local i32 @main() #0 {
  %1 = alloca i32, align 4
  %2 = alloca i32, align 4
  %3 = alloca i32, align 4
  %4 = alloca i32, align 4
  %5 = alloca i32, align 4
  %6 = alloca i32, align 4
  %7 = alloca i32, align 4
  store i32 0, i32* %1, align 4
  store i32 0, i32* %5, align 4
  %8 = call i32 (i8*, ...) @__isoc99_scanf(i8* getelementptr inbounds ([3 x i8], [3 x i8]* @.str, i64 0, i64 0), i32* %2)
  store i32 0, i32* %3, align 4
  br label %9

9:                                                ; preds = %27, %0
  %10 = load i32, i32* %3, align 4
  %11 = load i32, i32* %2, align 4
  %12 = icmp slt i32 %10, %11
  br i1 %12, label %13, label %30

13:                                               ; preds = %9
  %14 = load i32, i32* %3, align 4
  %15 = sext i32 %14 to i64
  %16 = getelementptr inbounds [100000 x %struct.st], [100000 x %struct.st]* @st, i64 0, i64 %15
  %17 = getelementptr inbounds %struct.st, %struct.st* %16, i32 0, i32 0
  %18 = load i32, i32* %3, align 4
  %19 = sext i32 %18 to i64
  %20 = getelementptr inbounds [100000 x %struct.st], [100000 x %struct.st]* @st, i64 0, i64 %19
  %21 = getelementptr inbounds %struct.st, %struct.st* %20, i32 0, i32 1
  %22 = load i32, i32* %3, align 4
  %23 = sext i32 %22 to i64
  %24 = getelementptr inbounds [100000 x %struct.st], [100000 x %struct.st]* @st, i64 0, i64 %23
  %25 = getelementptr inbounds %struct.st, %struct.st* %24, i32 0, i32 2
  %26 = call i32 (i8*, ...) @__isoc99_scanf(i8* getelementptr inbounds ([9 x i8], [9 x i8]* @.str.1, i64 0, i64 0), i32* %17, i32* %21, i32* %25)
  br label %27

27:                                               ; preds = %13
  %28 = load i32, i32* %3, align 4
  %29 = add nsw i32 %28, 1
  store i32 %29, i32* %3, align 4
  br label %9

30:                                               ; preds = %9
  store i32 0, i32* %3, align 4
  br label %31

31:                                               ; preds = %92, %30
  %32 = load i32, i32* %3, align 4
  %33 = icmp slt i32 %32, 3
  br i1 %33, label %34, label %95

34:                                               ; preds = %31
  store i32 0, i32* %4, align 4
  br label %35

35:                                               ; preds = %72, %34
  %36 = load i32, i32* %4, align 4
  %37 = load i32, i32* %2, align 4
  %38 = icmp slt i32 %36, %37
  br i1 %38, label %39, label %75

39:                                               ; preds = %35
  %40 = load i32, i32* %5, align 4
  %41 = load i32, i32* %4, align 4
  %42 = sext i32 %41 to i64
  %43 = getelementptr inbounds [100000 x %struct.st], [100000 x %struct.st]* @st, i64 0, i64 %42
  %44 = getelementptr inbounds %struct.st, %struct.st* %43, i32 0, i32 1
  %45 = load i32, i32* %44, align 4
  %46 = load i32, i32* %4, align 4
  %47 = sext i32 %46 to i64
  %48 = getelementptr inbounds [100000 x %struct.st], [100000 x %struct.st]* @st, i64 0, i64 %47
  %49 = getelementptr inbounds %struct.st, %struct.st* %48, i32 0, i32 2
  %50 = load i32, i32* %49, align 4
  %51 = add nsw i32 %45, %50
  %52 = icmp slt i32 %40, %51
  br i1 %52, label %53, label %71

53:                                               ; preds = %39
  %54 = load i32, i32* %4, align 4
  %55 = sext i32 %54 to i64
  %56 = getelementptr inbounds [100000 x %struct.st], [100000 x %struct.st]* @st, i64 0, i64 %55
  %57 = getelementptr inbounds %struct.st, %struct.st* %56, i32 0, i32 1
  %58 = load i32, i32* %57, align 4
  %59 = load i32, i32* %4, align 4
  %60 = sext i32 %59 to i64
  %61 = getelementptr inbounds [100000 x %struct.st], [100000 x %struct.st]* @st, i64 0, i64 %60
  %62 = getelementptr inbounds %struct.st, %struct.st* %61, i32 0, i32 2
  %63 = load i32, i32* %62, align 4
  %64 = add nsw i32 %58, %63
  store i32 %64, i32* %5, align 4
  %65 = load i32, i32* %4, align 4
  %66 = sext i32 %65 to i64
  %67 = getelementptr inbounds [100000 x %struct.st], [100000 x %struct.st]* @st, i64 0, i64 %66
  %68 = getelementptr inbounds %struct.st, %struct.st* %67, i32 0, i32 0
  %69 = load i32, i32* %68, align 4
  store i32 %69, i32* %6, align 4
  %70 = load i32, i32* %4, align 4
  store i32 %70, i32* %7, align 4
  br label %71

71:                                               ; preds = %53, %39
  br label %72

72:                                               ; preds = %71
  %73 = load i32, i32* %4, align 4
  %74 = add nsw i32 %73, 1
  store i32 %74, i32* %4, align 4
  br label %35

75:                                               ; preds = %35
  %76 = load i32, i32* %7, align 4
  %77 = sext i32 %76 to i64
  %78 = getelementptr inbounds [100000 x %struct.st], [100000 x %struct.st]* @st, i64 0, i64 %77
  %79 = getelementptr inbounds %struct.st, %struct.st* %78, i32 0, i32 1
  store i32 0, i32* %79, align 4
  %80 = load i32, i32* %7, align 4
  %81 = sext i32 %80 to i64
  %82 = getelementptr inbounds [100000 x %struct.st], [100000 x %struct.st]* @st, i64 0, i64 %81
  %83 = getelementptr inbounds %struct.st, %struct.st* %82, i32 0, i32 2
  store i32 0, i32* %83, align 4
  %84 = load i32, i32* %6, align 4
  %85 = load i32, i32* %5, align 4
  %86 = call i32 (i8*, ...) @printf(i8* getelementptr inbounds ([6 x i8], [6 x i8]* @.str.2, i64 0, i64 0), i32 %84, i32 %85)
  %87 = load i32, i32* %3, align 4
  %88 = icmp slt i32 %87, 2
  br i1 %88, label %89, label %91

89:                                               ; preds = %75
  %90 = call i32 (i8*, ...) @printf(i8* getelementptr inbounds ([2 x i8], [2 x i8]* @.str.3, i64 0, i64 0))
  br label %91

91:                                               ; preds = %89, %75
  store i32 0, i32* %5, align 4
  br label %92

92:                                               ; preds = %91
  %93 = load i32, i32* %3, align 4
  %94 = add nsw i32 %93, 1
  store i32 %94, i32* %3, align 4
  br label %31

95:                                               ; preds = %31
  %96 = load i32, i32* %1, align 4
  ret i32 %96
}

declare dso_local i32 @__isoc99_scanf(i8*, ...) #1

declare dso_local i32 @printf(i8*, ...) #1


!llvm.module.flags = !{!0}
!llvm.ident = !{!1}

!0 = !{i32 1, !"wchar_size", i32 4}
!1 = !{!"clang version 10.0.0-4ubuntu1 "}
